; Function Attrs: mustprogress noinline uwtable
define hidden noundef ptr @_ZN6google8protobuf5Arena18CreateMaybeMessageIN17opencv_tensorflow19AttrValue_ListValueEJEEEPT_PS1_DpOT0_(ptr noundef %0) local_unnamed_addr #17 align 2 personality ptr @__gxx_personality_v0 {
  %2 = icmp eq ptr %0, null
  br i1 %2, label %_ZN6google8protobuf5Arena14InternalHelperIN17opencv_tensorflow19AttrValue_ListValueEE3NewEv.exit, label %8

_ZN6google8protobuf5Arena14InternalHelperIN17opencv_tensorflow19AttrValue_ListValueEE3NewEv.exit: ; preds = %1
  %3 = tail call noalias noundef nonnull dereferenceable(176) ptr @_Znwm(i64 noundef 176) #32
  %4 = getelementptr inbounds nuw i8, ptr %3, i64 8
  store i64 0, ptr %4, align 8, !tbaa !16
  store ptr getelementptr inbounds nuw inrange(-16, 152) (i8, ptr @_ZTVN17opencv_tensorflow19AttrValue_ListValueE, i64 16), ptr %3, align 8, !tbaa !19
  %5 = getelementptr inbounds nuw i8, ptr %3, i64 16
  %6 = getelementptr inbounds nuw i8, ptr %3, i64 64
  %7 = getelementptr inbounds nuw i8, ptr %3, i64 120
  tail call void @llvm.memset.p0.i64(ptr noundef nonnull align 8 dereferenceable(40) %5, i8 0, i64 40, i1 false)
  tail call void @llvm.memset.p0.i64(ptr noundef nonnull align 8 dereferenceable(48) %6, i8 0, i64 48, i1 false)
  tail call void @llvm.memset.p0.i64(ptr noundef nonnull align 8 dereferenceable(52) %7, i8 0, i64 52, i1 false)
  br label %_ZN6google8protobuf5Arena21CreateMessageInternalIN17opencv_tensorflow19AttrValue_ListValueEEEPT_PS1_.exit

8:                                                ; preds = %1
  %9 = tail call noundef ptr @_ZN6google8protobuf5Arena23AllocateAlignedWithHookEmPKSt9type_info(ptr noundef nonnull align 8 dereferenceable(32) %0, i64 noundef 176, ptr noundef nonnull @_ZTIN17opencv_tensorflow19AttrValue_ListValueE)
  %10 = getelementptr inbounds nuw i8, ptr %9, i64 8
  %11 = ptrtoint ptr %0 to i64
  store i64 %11, ptr %10, align 8, !tbaa !16
  store ptr getelementptr inbounds nuw inrange(-16, 152) (i8, ptr @_ZTVN17opencv_tensorflow19AttrValue_ListValueE, i64 16), ptr %9, align 8, !tbaa !19
  %12 = getelementptr inbounds nuw i8, ptr %9, i64 16
  store ptr %0, ptr %12, align 8, !tbaa !21
  %13 = getelementptr inbounds nuw i8, ptr %9, i64 24
  %14 = getelementptr inbounds nuw i8, ptr %9, i64 48
  tail call void @llvm.memset.p0.i64(ptr noundef nonnull align 8 dereferenceable(24) %13, i8 0, i64 24, i1 false)
  store ptr %0, ptr %14, align 8, !tbaa !22
  %15 = getelementptr inbounds nuw i8, ptr %9, i64 64
  store i32 0, ptr %15, align 8, !tbaa !24
  %16 = getelementptr inbounds nuw i8, ptr %9, i64 68
  store i32 0, ptr %16, align 4, !tbaa !26
  %17 = getelementptr inbounds nuw i8, ptr %9, i64 72
  store ptr %0, ptr %17, align 8, !tbaa !27
  %18 = getelementptr inbounds nuw i8, ptr %9, i64 80
  store i32 0, ptr %18, align 8, !tbaa !28
  %19 = getelementptr inbounds nuw i8, ptr %9, i64 84
  store i32 0, ptr %19, align 4, !tbaa !30
  %20 = getelementptr inbounds nuw i8, ptr %9, i64 88
  store ptr %0, ptr %20, align 8, !tbaa !31
  %21 = getelementptr inbounds nuw i8, ptr %9, i64 96
  store i32 0, ptr %21, align 8, !tbaa !32
  %22 = getelementptr inbounds nuw i8, ptr %9, i64 100
  store i32 0, ptr %22, align 4, !tbaa !34
  %23 = getelementptr inbounds nuw i8, ptr %9, i64 104
  store ptr %0, ptr %23, align 8, !tbaa !35
  %24 = getelementptr inbounds nuw i8, ptr %9, i64 120
  store ptr %0, ptr %24, align 8, !tbaa !21
  %25 = getelementptr inbounds nuw i8, ptr %9, i64 128
  tail call void @llvm.memset.p0.i64(ptr noundef nonnull align 8 dereferenceable(16) %25, i8 0, i64 16, i1 false)
  %26 = getelementptr inbounds nuw i8, ptr %9, i64 144
  store ptr %0, ptr %26, align 8, !tbaa !21
  %27 = getelementptr inbounds nuw i8, ptr %9, i64 152
  tail call void @llvm.memset.p0.i64(ptr noundef nonnull align 8 dereferenceable(20) %27, i8 0, i64 20, i1 false)
  br label %_ZN6google8protobuf5Arena21CreateMessageInternalIN17opencv_tensorflow19AttrValue_ListValueEEEPT_PS1_.exit

_ZN6google8protobuf5Arena21CreateMessageInternalIN17opencv_tensorflow19AttrValue_ListValueEEEPT_PS1_.exit: ; preds = %_ZN6google8protobuf5Arena14InternalHelperIN17opencv_tensorflow19AttrValue_ListValueEE3NewEv.exit, %8
  %.0.i = phi ptr [ %3, %_ZN6google8protobuf5Arena14InternalHelperIN17opencv_tensorflow19AttrValue_ListValueEE3NewEv.exit ], [ %9, %8 ]
  ret ptr %.0.i
}